target datalayout = "e-m:e-p270:32:32-p271:32:32-p272:64:64-i64:64-i128:128-f80:128-n8:16:32:64-S128"
target triple = "x86_64-pc-linux-gnu"

%class.LogDecorators = type { i32 }
%class.LogFileOutput = type { %class.LogFileStreamOutput, ptr, ptr, ptr, i32, i32, i32, i8, i64, i64, i64, %class.Semaphore }
%class.LogFileStreamOutput = type { %class.LogOutput.base, i8, i8, ptr, [12 x i64] }
%class.LogOutput.base = type <{ ptr, i8, [7 x i8], %class.stringStream, %class.LogDecorators }>
%class.stringStream = type <{ %class.outputStream, ptr, i64, i64, i8, [48 x i8], [7 x i8] }>
%class.outputStream = type { ptr, i32, i8, i32, i64, %class.TimeStamp, ptr, i64 }
%class.TimeStamp = type { i64 }
%class.Semaphore = type { %class.PosixSemaphore }
%class.PosixSemaphore = type { %union.sem_t }
%union.sem_t = type { i64, [24 x i8] }
%class.RotationLocker = type { ptr }

; Function Attrs: mustprogress nounwind uwtable
define linkonce_odr hidden void @_ZN9Semaphore6signalEj(ptr noundef nonnull align 8 dereferenceable(32) %0, i32 noundef %1) #1 comdat align 2 {
  %3 = alloca ptr, align 8
  %4 = alloca i32, align 4
  store ptr %0, ptr %3, align 8
  store i32 %1, ptr %4, align 4
  %5 = load ptr, ptr %3, align 8
  %6 = getelementptr inbounds %class.Semaphore, ptr %5, i32 0, i32 0
  %7 = load i32, ptr %4, align 4
  call void @_ZN14PosixSemaphore6signalEj(ptr noundef nonnull align 8 dereferenceable(32) %6, i32 noundef %7)
  ret void
}

; Function Attrs: mustprogress nounwind uwtable
define linkonce_odr hidden void @_ZN9Semaphore4waitEv(ptr noundef nonnull align 8 dereferenceable(32) %0) #1 comdat align 2 {
  %2 = alloca ptr, align 8
  store ptr %0, ptr %2, align 8
  %3 = load ptr, ptr %2, align 8
  %4 = getelementptr inbounds %class.Semaphore, ptr %3, i32 0, i32 0
  call void @_ZN14PosixSemaphore4waitEv(ptr noundef nonnull align 8 dereferenceable(32) %4)
  ret void
}

; Function Attrs: mustprogress nounwind uwtable
define linkonce_odr hidden void @_ZN14RotationLockerD2Ev(ptr noundef nonnull align 8 dereferenceable(8) %0) unnamed_addr #1 comdat align 2 {
  %2 = alloca ptr, align 8
  store ptr %0, ptr %2, align 8
  %3 = load ptr, ptr %2, align 8
  %4 = getelementptr inbounds %class.RotationLocker, ptr %3, i32 0, i32 0
  %5 = load ptr, ptr %4, align 8
  call void @_ZN9Semaphore6signalEj(ptr noundef nonnull align 8 dereferenceable(32) %5, i32 noundef 1)
  ret void
}

; Function Attrs: mustprogress nounwind uwtable
define linkonce_odr hidden noundef zeroext i1 @_ZN13LogFileOutput13should_rotateEv(ptr noundef nonnull align 8 dereferenceable(360) %0) #1 comdat align 2 {
  %2 = alloca ptr, align 8
  store ptr %0, ptr %2, align 8
  %3 = load ptr, ptr %2, align 8
  %4 = getelementptr inbounds %class.LogFileOutput, ptr %3, i32 0, i32 5
  %5 = load i32, ptr %4, align 4
  %6 = icmp ugt i32 %5, 0
  br i1 %6, label %7, label %17

7:                                                ; preds = %1
  %8 = getelementptr inbounds %class.LogFileOutput, ptr %3, i32 0, i32 9
  %9 = load i64, ptr %8, align 8
  %10 = icmp ugt i64 %9, 0
  br i1 %10, label %11, label %17

11:                                               ; preds = %7
  %12 = getelementptr inbounds %class.LogFileOutput, ptr %3, i32 0, i32 10
  %13 = load i64, ptr %12, align 8
  %14 = getelementptr inbounds %class.LogFileOutput, ptr %3, i32 0, i32 9
  %15 = load i64, ptr %14, align 8
  %16 = icmp uge i64 %13, %15
  br label %17

17:                                               ; preds = %11, %7, %1
  %18 = phi i1 [ false, %7 ], [ false, %1 ], [ %16, %11 ]
  ret i1 %18
}

; Function Attrs: mustprogress nounwind uwtable
define linkonce_odr hidden void @_ZN14RotationLockerC2ER9Semaphore(ptr noundef nonnull align 8 dereferenceable(8) %0, ptr noundef nonnull align 8 dereferenceable(32) %1) unnamed_addr #1 comdat align 2 {
  %3 = alloca ptr, align 8
  %4 = alloca ptr, align 8
  store ptr %0, ptr %3, align 8
  store ptr %1, ptr %4, align 8
  %5 = load ptr, ptr %3, align 8
  %6 = getelementptr inbounds %class.RotationLocker, ptr %5, i32 0, i32 0
  %7 = load ptr, ptr %4, align 8
  store ptr %7, ptr %6, align 8
  %8 = load ptr, ptr %4, align 8
  call void @_ZN9Semaphore4waitEv(ptr noundef nonnull align 8 dereferenceable(32) %8)
  ret void
}

; Function Attrs: mustprogress nounwind uwtable
define hidden noundef i32 @_ZN13LogFileOutput14write_blockingERK14LogDecorationsPKc(ptr noundef nonnull align 8 dereferenceable(360) %0, ptr noundef nonnull align 8 dereferenceable(48) %1, ptr noundef %2) unnamed_addr #1 align 2 {
  %4 = alloca i32, align 4
  %5 = alloca ptr, align 8
  %6 = alloca ptr, align 8
  %7 = alloca ptr, align 8
  %8 = alloca %class.RotationLocker, align 8
  %9 = alloca i32, align 4
  %10 = alloca i32, align 4
  store ptr %0, ptr %5, align 8
  store ptr %1, ptr %6, align 8
  store ptr %2, ptr %7, align 8
  %11 = load ptr, ptr %5, align 8
  %12 = getelementptr inbounds %class.LogFileOutput, ptr %11, i32 0, i32 11
  call void @_ZN14RotationLockerC2ER9Semaphore(ptr noundef nonnull align 8 dereferenceable(8) %8, ptr noundef nonnull align 8 dereferenceable(32) %12)
  %13 = getelementptr inbounds %class.LogFileStreamOutput, ptr %11, i32 0, i32 3
  %14 = load ptr, ptr %13, align 8
  %15 = icmp eq ptr %14, null
  br i1 %15, label %16, label %17

16:                                               ; preds = %3
  store i32 0, ptr %4, align 4
  store i32 1, ptr %9, align 4
  br label %40

17:                                               ; preds = %3
  %18 = load ptr, ptr %6, align 8
  %19 = load ptr, ptr %7, align 8
  %20 = call noundef i32 @_ZN19LogFileStreamOutput14write_internalERK14LogDecorationsPKc(ptr noundef nonnull align 8 dereferenceable(264) %11, ptr noundef nonnull align 8 dereferenceable(48) %18, ptr noundef %19)
  store i32 %20, ptr %10, align 4
  %21 = call noundef zeroext i1 @_ZN19LogFileStreamOutput5flushEv(ptr noundef nonnull align 8 dereferenceable(264) %11)
  br i1 %21, label %22, label %24

22:                                               ; preds = %17
  %23 = load i32, ptr %10, align 4
  br label %25

24:                                               ; preds = %17
  br label %25

25:                                               ; preds = %24, %22
  %26 = phi i32 [ %23, %22 ], [ -1, %24 ]
  store i32 %26, ptr %10, align 4
  %27 = load i32, ptr %10, align 4
  %28 = icmp sgt i32 %27, 0
  br i1 %28, label %29, label %38

29:                                               ; preds = %25
  %30 = load i32, ptr %10, align 4
  %31 = sext i32 %30 to i64
  %32 = getelementptr inbounds %class.LogFileOutput, ptr %11, i32 0, i32 10
  %33 = load i64, ptr %32, align 8
  %34 = add i64 %33, %31
  store i64 %34, ptr %32, align 8
  %35 = call noundef zeroext i1 @_ZN13LogFileOutput13should_rotateEv(ptr noundef nonnull align 8 dereferenceable(360) %11)
  br i1 %35, label %36, label %37

36:                                               ; preds = %29
  call void @_ZN13LogFileOutput6rotateEv(ptr noundef nonnull align 8 dereferenceable(360) %11)
  br label %37

37:                                               ; preds = %36, %29
  br label %38

38:                                               ; preds = %37, %25
  %39 = load i32, ptr %10, align 4
  store i32 %39, ptr %4, align 4
  store i32 1, ptr %9, align 4
  br label %40

40:                                               ; preds = %38, %16
  call void @_ZN14RotationLockerD2Ev(ptr noundef nonnull align 8 dereferenceable(8) %8) #9
  %41 = load i32, ptr %4, align 4
  ret i32 %41
}