; Function Attrs: mustprogress nounwind uwtable
define hidden noundef i32 @_ZN13LogFileOutput14write_blockingERK14LogDecorationsPKc(ptr noundef nonnull align 8 dereferenceable(360) %0, ptr noundef nonnull align 8 dereferenceable(48) %1, ptr noundef %2) unnamed_addr #0 align 2 {
  %4 = getelementptr inbounds i8, ptr %0, i64 328
  tail call void @_ZN14PosixSemaphore4waitEv(ptr noundef nonnull align 8 dereferenceable(32) %4) #13
  %5 = getelementptr inbounds i8, ptr %0, i64 160
  %6 = load ptr, ptr %5, align 8
  %7 = icmp eq ptr %6, null
  br i1 %7, label %_ZN13LogFileOutput13should_rotateEv.exit.thread, label %8

8:                                                ; preds = %3
  %9 = tail call noundef i32 @_ZN19LogFileStreamOutput14write_internalERK14LogDecorationsPKc(ptr noundef nonnull align 8 dereferenceable(264) %0, ptr noundef nonnull align 8 dereferenceable(48) %1, ptr noundef %2) #13
  %10 = tail call noundef zeroext i1 @_ZN19LogFileStreamOutput5flushEv(ptr noundef nonnull align 8 dereferenceable(264) %0) #13
  %11 = select i1 %10, i32 %9, i32 -1
  %12 = icmp sgt i32 %11, 0
  br i1 %12, label %13, label %_ZN13LogFileOutput13should_rotateEv.exit.thread

13:                                               ; preds = %8
  %14 = zext nneg i32 %11 to i64
  %15 = getelementptr inbounds i8, ptr %0, i64 320
  %16 = load i64, ptr %15, align 8
  %17 = add i64 %16, %14
  %18 = freeze i64 %17
  store i64 %18, ptr %15, align 8
  %19 = getelementptr inbounds i8, ptr %0, i64 292
  %20 = load i32, ptr %19, align 4
  %.not.i = icmp eq i32 %20, 0
  br i1 %.not.i, label %_ZN13LogFileOutput13should_rotateEv.exit.thread, label %21

21:                                               ; preds = %13
  %22 = getelementptr inbounds i8, ptr %0, i64 312
  %23 = load i64, ptr %22, align 8
  %24 = add i64 %23, -1
  %or.cond = icmp ult i64 %24, %18
  br i1 %or.cond, label %25, label %_ZN13LogFileOutput13should_rotateEv.exit.thread

25:                                               ; preds = %21
  tail call void @_ZN13LogFileOutput6rotateEv(ptr noundef nonnull align 8 dereferenceable(360) %0)
  br label %_ZN13LogFileOutput13should_rotateEv.exit.thread

_ZN13LogFileOutput13should_rotateEv.exit.thread:  ; preds = %13, %21, %8, %25, %3
  %.0 = phi i32 [ 0, %3 ], [ %9, %25 ], [ %11, %8 ], [ %9, %21 ], [ %9, %13 ]
  tail call void @_ZN14PosixSemaphore6signalEj(ptr noundef nonnull align 8 dereferenceable(32) %4, i32 noundef 1) #13
  ret i32 %.0
}